; Function Attrs: nounwind uwtable
define internal range(i32 0, 2) i32 @sm2_to_type_specific_no_pub_pem_encode(ptr noundef %0, ptr noundef %1, ptr noundef %2, ptr noundef readnone captures(address_is_null) %3, i32 noundef %4, ptr noundef %5, ptr noundef %6) #0 {
  %.not = icmp eq ptr %3, null
  br i1 %.not, label %9, label %8

8:                                                ; preds = %7
  tail call void @ERR_new() #5
  tail call void @ERR_set_debug(ptr noundef nonnull @.str, i32 noundef 1425, ptr noundef nonnull @__func__.sm2_to_type_specific_no_pub_pem_encode) #5
  tail call void (i32, i32, ptr, ...) @ERR_set_error(i32 noundef 57, i32 noundef 524550, ptr noundef null) #5
  br label %key2any_encode.exit

9:                                                ; preds = %7
  %10 = and i32 %4, 1
  %.not11 = icmp eq i32 %10, 0
  br i1 %.not11, label %31, label %11

11:                                               ; preds = %9
  %12 = icmp eq ptr %2, null
  br i1 %12, label %13, label %14

13:                                               ; preds = %11
  tail call void @ERR_new() #5
  tail call void @ERR_set_debug(ptr noundef nonnull @.str, i32 noundef 1140, ptr noundef nonnull @__func__.key2any_encode) #5
  tail call void (i32, i32, ptr, ...) @ERR_set_error(i32 noundef 57, i32 noundef 786690, ptr noundef null) #5
  br label %key2any_encode.exit

14:                                               ; preds = %11
  %15 = load ptr, ptr %0, align 8, !tbaa !3
  %16 = tail call ptr @ossl_bio_new_from_core_bio(ptr noundef %15, ptr noundef %1) #5
  %.not28.i = icmp eq ptr %16, null
  br i1 %.not28.i, label %29, label %17

17:                                               ; preds = %14
  %18 = icmp eq ptr %5, null
  br i1 %18, label %22, label %19

19:                                               ; preds = %17
  %20 = getelementptr inbounds nuw i8, ptr %0, i64 24
  %21 = tail call i32 @ossl_pw_set_ossl_passphrase_cb(ptr noundef nonnull %20, ptr noundef nonnull %5, ptr noundef %6) #5
  %.not29.i = icmp eq i32 %21, 0
  br i1 %.not29.i, label %29, label %22

22:                                               ; preds = %19, %17
  %23 = getelementptr inbounds nuw i8, ptr %0, i64 24
  %24 = getelementptr inbounds nuw i8, ptr %0, i64 16
  %25 = load ptr, ptr %24, align 8, !tbaa !15
  %26 = tail call i32 @PEM_ASN1_write_bio_ctx(ptr noundef nonnull @ec_prv_k2d, ptr noundef nonnull %0, ptr noundef nonnull @.str.13, ptr noundef nonnull %16, ptr noundef nonnull %2, ptr noundef %25, ptr noundef null, i32 noundef 0, ptr noundef nonnull @ossl_pw_pem_password, ptr noundef nonnull %23) #5
  %27 = icmp sgt i32 %26, 0
  %28 = zext i1 %27 to i32
  br label %29

29:                                               ; preds = %22, %19, %14
  %.1.i = phi i32 [ %28, %22 ], [ 0, %19 ], [ 0, %14 ]
  %30 = tail call i32 @BIO_free(ptr noundef %16) #5
  br label %key2any_encode.exit

31:                                               ; preds = %9
  %32 = and i32 %4, 132
  %.not12 = icmp eq i32 %32, 0
  br i1 %.not12, label %47, label %33

33:                                               ; preds = %31
  %34 = icmp eq ptr %2, null
  br i1 %34, label %35, label %36

35:                                               ; preds = %33
  tail call void @ERR_new() #5
  tail call void @ERR_set_debug(ptr noundef nonnull @.str, i32 noundef 1140, ptr noundef nonnull @__func__.key2any_encode) #5
  tail call void (i32, i32, ptr, ...) @ERR_set_error(i32 noundef 57, i32 noundef 786690, ptr noundef null) #5
  br label %key2any_encode.exit

36:                                               ; preds = %33
  %37 = load ptr, ptr %0, align 8, !tbaa !3
  %38 = tail call ptr @ossl_bio_new_from_core_bio(ptr noundef %37, ptr noundef %1) #5
  %.not28.i13 = icmp eq ptr %38, null
  br i1 %.not28.i13, label %45, label %39

39:                                               ; preds = %36
  %40 = getelementptr inbounds nuw i8, ptr %0, i64 16
  %41 = load ptr, ptr %40, align 8, !tbaa !15
  %42 = tail call i32 @PEM_ASN1_write_bio_ctx(ptr noundef nonnull @ec_param_k2d, ptr noundef nonnull %0, ptr noundef nonnull @.str.14, ptr noundef nonnull %38, ptr noundef nonnull %2, ptr noundef %41, ptr noundef null, i32 noundef 0, ptr noundef null, ptr noundef null) #5
  %43 = icmp sgt i32 %42, 0
  %44 = zext i1 %43 to i32
  br label %45

45:                                               ; preds = %39, %36
  %.1.i14 = phi i32 [ %44, %39 ], [ 0, %36 ]
  %46 = tail call i32 @BIO_free(ptr noundef %38) #5
  br label %key2any_encode.exit

47:                                               ; preds = %31
  tail call void @ERR_new() #5
  tail call void @ERR_set_debug(ptr noundef nonnull @.str, i32 noundef 1425, ptr noundef nonnull @__func__.sm2_to_type_specific_no_pub_pem_encode) #5
  tail call void (i32, i32, ptr, ...) @ERR_set_error(i32 noundef 57, i32 noundef 524550, ptr noundef null) #5
  br label %key2any_encode.exit

key2any_encode.exit:                              ; preds = %45, %35, %29, %13, %47, %8
  %.0 = phi i32 [ 0, %8 ], [ 0, %47 ], [ 0, %13 ], [ %.1.i, %29 ], [ 0, %35 ], [ %.1.i14, %45 ]
  ret i32 %.0
}